; Function Attrs: nounwind uwtable
define internal ptr @hmac_new(ptr noundef %0) #0 {
  %2 = tail call i32 @ossl_prov_is_running() #7
  %.not = icmp eq i32 %2, 0
  br i1 %.not, label %12, label %3

3:                                                ; preds = %1
  %4 = tail call noalias ptr @CRYPTO_zalloc(i64 noundef 160, ptr noundef nonnull @.str, i32 noundef 83) #7
  %5 = icmp eq ptr %4, null
  br i1 %5, label %10, label %6

6:                                                ; preds = %3
  %7 = tail call ptr @HMAC_CTX_new() #7
  %8 = getelementptr inbounds nuw i8, ptr %4, i64 8
  store ptr %7, ptr %8, align 8, !tbaa !3
  %9 = icmp eq ptr %7, null
  br i1 %9, label %10, label %11

10:                                               ; preds = %6, %3
  tail call void @CRYPTO_free(ptr noundef %4, ptr noundef nonnull @.str, i32 noundef 85) #7
  br label %12

11:                                               ; preds = %6
  store ptr %0, ptr %4, align 8, !tbaa !15
  br label %12

12:                                               ; preds = %1, %11, %10
  %.0 = phi ptr [ null, %10 ], [ %4, %11 ], [ null, %1 ]
  ret ptr %.0
}